target datalayout = "e-m:e-p270:32:32-p271:32:32-p272:64:64-i64:64-i128:128-f80:128-n8:16:32:64-S128"
target triple = "x86_64-pc-linux-gnu"

%struct.OutStruct = type { ptr, i8, i8, i8, i8, ptr, i64, i64 }
%struct.OperationConfig = type { i8, ptr, ptr, ptr, ptr, ptr, ptr, i8, i8, i8, i64, i8, i8, i8, i8, i8, ptr, i8, ptr, i8, ptr, i64, ptr, %struct.dynbuf, ptr, ptr, i64, i64, i64, i64, ptr, ptr, ptr, ptr, i64, i64, i16, ptr, i64, i64, i64, i64, ptr, ptr, ptr, ptr, ptr, ptr, ptr, ptr, ptr, ptr, ptr, ptr, ptr, ptr, i32, ptr, ptr, ptr, ptr, i8, ptr, i8, i8, i8, i8, i8, i8, i8, i8, i8, i8, i8, i8, i8, i8, ptr, ptr, ptr, ptr, ptr, ptr, i64, ptr, ptr, ptr, ptr, ptr, ptr, ptr, ptr, ptr, ptr, ptr, ptr, ptr, ptr, ptr, ptr, ptr, ptr, ptr, ptr, ptr, ptr, ptr, ptr, ptr, ptr, ptr, ptr, ptr, ptr, i8, ptr, ptr, ptr, ptr, i64, i8, i8, i8, i8, i8, i8, i8, i8, i8, i8, i8, i8, i8, i8, i8, i8, i8, i8, i8, i8, ptr, ptr, ptr, ptr, i64, i64, i64, i64, i64, i32, i64, ptr, ptr, ptr, ptr, ptr, ptr, ptr, ptr, i32, i64, i64, i8, i8, i8, i8, i32, ptr, i8, i64, ptr, ptr, i8, i8, i64, i8, i8, i64, i64, ptr, ptr, i32, i64, i64, i8, i8, i8, i8, i8, i8, i8, i8, i64, i64, i8, i32, i8, i64, i8, i8, i8, i8, i8, i8, i8, i8, i8, ptr, i8, ptr, i8, i8, i8, i64, i8, i8, i8, i64, i8, ptr, i8, ptr, i32, i8, ptr, ptr, ptr, %struct.State, i8, i8, ptr, ptr, ptr }
%struct.dynbuf = type { ptr, i64, i64, i64 }
%struct.State = type { ptr, ptr, ptr, ptr, ptr, ptr, i64, i64, i64, i64 }

@.str = private unnamed_addr constant [3 x i8] c"wb\00", align 1
@.str.1 = private unnamed_addr constant [32 x i8] c"overflow in filename generation\00", align 1
@.str.2 = private unnamed_addr constant [14 x i8] c"out of memory\00", align 1
@.str.3 = private unnamed_addr constant [3 x i8] c"%d\00", align 1
@.str.4 = private unnamed_addr constant [31 x i8] c"Failed to open the file %s: %s\00", align 1

; Function Attrs: nounwind uwtable
define dso_local zeroext i1 @tool_create_output_file(ptr noundef %0, ptr noundef %1) #0 {
  %3 = alloca i1, align 1
  %4 = alloca ptr, align 8
  %5 = alloca ptr, align 8
  %6 = alloca ptr, align 8
  %7 = alloca ptr, align 8
  %8 = alloca ptr, align 8
  %9 = alloca i32, align 4
  %10 = alloca i32, align 4
  %11 = alloca i64, align 8
  %12 = alloca i64, align 8
  %13 = alloca ptr, align 8
  %14 = alloca i32, align 4
  store ptr %0, ptr %4, align 8, !tbaa !4
  store ptr %1, ptr %5, align 8, !tbaa !9
  call void @llvm.lifetime.start.p0(i64 8, ptr %6) #8
  call void @llvm.lifetime.start.p0(i64 8, ptr %7) #8
  store ptr null, ptr %7, align 8, !tbaa !11
  call void @llvm.lifetime.start.p0(i64 8, ptr %8) #8
  %15 = load ptr, ptr %4, align 8, !tbaa !4
  %16 = getelementptr inbounds nuw %struct.OutStruct, ptr %15, i32 0, i32 0
  %17 = load ptr, ptr %16, align 8, !tbaa !13
  store ptr %17, ptr %8, align 8, !tbaa !18
  br label %18

18:                                               ; preds = %2
  br label %19

19:                                               ; preds = %18
  br label %20

20:                                               ; preds = %19
  br label %21

21:                                               ; preds = %20
  br label %22

22:                                               ; preds = %21
  br label %23

23:                                               ; preds = %22
  %24 = load ptr, ptr %5, align 8, !tbaa !9
  %25 = getelementptr inbounds nuw %struct.OperationConfig, ptr %24, i32 0, i32 224
  %26 = load ptr, ptr %25, align 8, !tbaa !19
  store ptr %26, ptr %6, align 8, !tbaa !31
  br label %27

27:                                               ; preds = %23
  br label %28

28:                                               ; preds = %27
  br label %29

29:                                               ; preds = %28
  %30 = load ptr, ptr %5, align 8, !tbaa !9
  %31 = getelementptr inbounds nuw %struct.OperationConfig, ptr %30, i32 0, i32 222
  %32 = load i32, ptr %31, align 8, !tbaa !32
  %33 = icmp eq i32 %32, 2
  br i1 %33, label %44, label %34

34:                                               ; preds = %29
  %35 = load ptr, ptr %5, align 8, !tbaa !9
  %36 = getelementptr inbounds nuw %struct.OperationConfig, ptr %35, i32 0, i32 222
  %37 = load i32, ptr %36, align 8, !tbaa !32
  %38 = icmp eq i32 %37, 0
  br i1 %38, label %39, label %47

39:                                               ; preds = %34
  %40 = load ptr, ptr %4, align 8, !tbaa !4
  %41 = getelementptr inbounds nuw %struct.OutStruct, ptr %40, i32 0, i32 2
  %42 = load i8, ptr %41, align 1, !tbaa !33, !range !34, !noundef !35
  %43 = trunc i8 %42 to i1
  br i1 %43, label %47, label %44

44:                                               ; preds = %39, %29
  %45 = load ptr, ptr %8, align 8, !tbaa !18
  %46 = call noalias ptr @fopen(ptr noundef %45, ptr noundef @.str)
  store ptr %46, ptr %7, align 8, !tbaa !11
  br label %155

47:                                               ; preds = %39, %34
  call void @llvm.lifetime.start.p0(i64 4, ptr %9) #8
  br label %48

48:                                               ; preds = %58, %47
  %49 = load ptr, ptr %8, align 8, !tbaa !18
  %50 = call i32 (ptr, i32, ...) @open(ptr noundef %49, i32 noundef 193, i32 noundef 438)
  store i32 %50, ptr %9, align 4, !tbaa !36
  br label %51

51:                                               ; preds = %48
  %52 = load i32, ptr %9, align 4, !tbaa !36
  %53 = icmp eq i32 %52, -1
  br i1 %53, label %54, label %58

54:                                               ; preds = %51
  %55 = call ptr @__errno_location() #9
  %56 = load i32, ptr %55, align 4, !tbaa !36
  %57 = icmp eq i32 %56, 4
  br label %58

58:                                               ; preds = %54, %51
  %59 = phi i1 [ false, %51 ], [ %57, %54 ]
  br i1 %59, label %48, label %60, !llvm.loop !37

60:                                               ; preds = %58
  %61 = load ptr, ptr %5, align 8, !tbaa !9
  %62 = getelementptr inbounds nuw %struct.OperationConfig, ptr %61, i32 0, i32 222
  %63 = load i32, ptr %62, align 8, !tbaa !32
  %64 = icmp eq i32 %63, 1
  br i1 %64, label %65, label %139

65:                                               ; preds = %60
  %66 = load i32, ptr %9, align 4, !tbaa !36
  %67 = icmp eq i32 %66, -1
  br i1 %67, label %68, label %139

68:                                               ; preds = %65
  call void @llvm.lifetime.start.p0(i64 4, ptr %10) #8
  store i32 1, ptr %10, align 4, !tbaa !36
  call void @llvm.lifetime.start.p0(i64 8, ptr %11) #8
  %69 = load ptr, ptr %8, align 8, !tbaa !18
  %70 = call i64 @strlen(ptr noundef %69) #10
  store i64 %70, ptr %11, align 8, !tbaa !39
  call void @llvm.lifetime.start.p0(i64 8, ptr %12) #8
  %71 = load i64, ptr %11, align 8, !tbaa !39
  %72 = add i64 %71, 13
  store i64 %72, ptr %12, align 8, !tbaa !39
  call void @llvm.lifetime.start.p0(i64 8, ptr %13) #8
  %73 = load i64, ptr %12, align 8, !tbaa !39
  %74 = load i64, ptr %11, align 8, !tbaa !39
  %75 = icmp ult i64 %73, %74
  br i1 %75, label %76, label %78

76:                                               ; preds = %68
  %77 = load ptr, ptr %6, align 8, !tbaa !31
  call void (ptr, ptr, ...) @errorf(ptr noundef %77, ptr noundef @.str.1)
  store i1 false, ptr %3, align 1
  store i32 1, ptr %14, align 4
  br label %136

78:                                               ; preds = %68
  %79 = load i64, ptr %12, align 8, !tbaa !39
  %80 = call noalias ptr @malloc(i64 noundef %79) #11
  store ptr %80, ptr %13, align 8, !tbaa !18
  %81 = load ptr, ptr %13, align 8, !tbaa !18
  %82 = icmp ne ptr %81, null
  br i1 %82, label %85, label %83

83:                                               ; preds = %78
  %84 = load ptr, ptr %6, align 8, !tbaa !31
  call void (ptr, ptr, ...) @errorf(ptr noundef %84, ptr noundef @.str.2)
  store i1 false, ptr %3, align 1
  store i32 1, ptr %14, align 4
  br label %136

85:                                               ; preds = %78
  %86 = load ptr, ptr %13, align 8, !tbaa !18
  %87 = load ptr, ptr %8, align 8, !tbaa !18
  %88 = load i64, ptr %11, align 8, !tbaa !39
  call void @llvm.memcpy.p0.p0.i64(ptr align 1 %86, ptr align 1 %87, i64 %88, i1 false)
  %89 = load ptr, ptr %13, align 8, !tbaa !18
  %90 = load i64, ptr %11, align 8, !tbaa !39
  %91 = getelementptr inbounds nuw i8, ptr %89, i64 %90
  store i8 46, ptr %91, align 1, !tbaa !40
  br label %92

92:                                               ; preds = %129, %85
  %93 = load i32, ptr %9, align 4, !tbaa !36
  %94 = icmp eq i32 %93, -1
  br i1 %94, label %95, label %106

95:                                               ; preds = %92
  %96 = call ptr @__errno_location() #9
  %97 = load i32, ptr %96, align 4, !tbaa !36
  %98 = icmp eq i32 %97, 17
  br i1 %98, label %103, label %99

99:                                               ; preds = %95
  %100 = call ptr @__errno_location() #9
  %101 = load i32, ptr %100, align 4, !tbaa !36
  %102 = icmp eq i32 %101, 21
  br i1 %102, label %103, label %106

103:                                              ; preds = %99, %95
  %104 = load i32, ptr %10, align 4, !tbaa !36
  %105 = icmp slt i32 %104, 100
  br label %106

106:                                              ; preds = %103, %99, %92
  %107 = phi i1 [ false, %99 ], [ false, %92 ], [ %105, %103 ]
  br i1 %107, label %108, label %130

108:                                              ; preds = %106
  %109 = load ptr, ptr %13, align 8, !tbaa !18
  %110 = load i64, ptr %11, align 8, !tbaa !39
  %111 = getelementptr inbounds nuw i8, ptr %109, i64 %110
  %112 = getelementptr inbounds i8, ptr %111, i64 1
  %113 = load i32, ptr %10, align 4, !tbaa !36
  %114 = call i32 (ptr, i64, ptr, ...) @curl_msnprintf(ptr noundef %112, i64 noundef 12, ptr noundef @.str.3, i32 noundef %113)
  %115 = load i32, ptr %10, align 4, !tbaa !36
  %116 = add nsw i32 %115, 1
  store i32 %116, ptr %10, align 4, !tbaa !36
  br label %117

117:                                              ; preds = %127, %108
  %118 = load ptr, ptr %13, align 8, !tbaa !18
  %119 = call i32 (ptr, i32, ...) @open(ptr noundef %118, i32 noundef 193, i32 noundef 438)
  store i32 %119, ptr %9, align 4, !tbaa !36
  br label %120

120:                                              ; preds = %117
  %121 = load i32, ptr %9, align 4, !tbaa !36
  %122 = icmp eq i32 %121, -1
  br i1 %122, label %123, label %127

123:                                              ; preds = %120
  %124 = call ptr @__errno_location() #9
  %125 = load i32, ptr %124, align 4, !tbaa !36
  %126 = icmp eq i32 %125, 4
  br label %127

127:                                              ; preds = %123, %120
  %128 = phi i1 [ false, %120 ], [ %126, %123 ]
  br i1 %128, label %117, label %129, !llvm.loop !41

129:                                              ; preds = %127
  br label %92, !llvm.loop !42

130:                                              ; preds = %106
  %131 = load ptr, ptr %13, align 8, !tbaa !18
  %132 = load ptr, ptr %4, align 8, !tbaa !4
  %133 = getelementptr inbounds nuw %struct.OutStruct, ptr %132, i32 0, i32 0
  store ptr %131, ptr %133, align 8, !tbaa !13
  %134 = load ptr, ptr %4, align 8, !tbaa !4
  %135 = getelementptr inbounds nuw %struct.OutStruct, ptr %134, i32 0, i32 1
  store i8 1, ptr %135, align 8, !tbaa !43
  store i32 0, ptr %14, align 4
  br label %136

136:                                              ; preds = %130, %83, %76
  call void @llvm.lifetime.end.p0(i64 8, ptr %13) #8
  call void @llvm.lifetime.end.p0(i64 8, ptr %12) #8
  call void @llvm.lifetime.end.p0(i64 8, ptr %11) #8
  call void @llvm.lifetime.end.p0(i64 4, ptr %10) #8
  %137 = load i32, ptr %14, align 4
  switch i32 %137, label %152 [
    i32 0, label %138
  ]

138:                                              ; preds = %136
  br label %139

139:                                              ; preds = %138, %65, %60
  %140 = load i32, ptr %9, align 4, !tbaa !36
  %141 = icmp ne i32 %140, -1
  br i1 %141, label %142, label %151

142:                                              ; preds = %139
  %143 = load i32, ptr %9, align 4, !tbaa !36
  %144 = call noalias ptr @fdopen(i32 noundef %143, ptr noundef @.str) #8
  store ptr %144, ptr %7, align 8, !tbaa !11
  %145 = load ptr, ptr %7, align 8, !tbaa !11
  %146 = icmp ne ptr %145, null
  br i1 %146, label %150, label %147

147:                                              ; preds = %142
  %148 = load i32, ptr %9, align 4, !tbaa !36
  %149 = call i32 @close(i32 noundef %148)
  br label %150

150:                                              ; preds = %147, %142
  br label %151

151:                                              ; preds = %150, %139
  store i32 0, ptr %14, align 4
  br label %152

152:                                              ; preds = %151, %136
  call void @llvm.lifetime.end.p0(i64 4, ptr %9) #8
  %153 = load i32, ptr %14, align 4
  switch i32 %153, label %176 [
    i32 0, label %154
  ]

154:                                              ; preds = %152
  br label %155

155:                                              ; preds = %154, %44
  %156 = load ptr, ptr %7, align 8, !tbaa !11
  %157 = icmp ne ptr %156, null
  br i1 %157, label %164, label %158

158:                                              ; preds = %155
  %159 = load ptr, ptr %6, align 8, !tbaa !31
  %160 = load ptr, ptr %8, align 8, !tbaa !18
  %161 = call ptr @__errno_location() #9
  %162 = load i32, ptr %161, align 4, !tbaa !36
  %163 = call ptr @strerror(i32 noundef %162) #8
  call void (ptr, ptr, ...) @warnf(ptr noundef %159, ptr noundef @.str.4, ptr noundef %160, ptr noundef %163)
  store i1 false, ptr %3, align 1
  store i32 1, ptr %14, align 4
  br label %176

164:                                              ; preds = %155
  %165 = load ptr, ptr %4, align 8, !tbaa !4
  %166 = getelementptr inbounds nuw %struct.OutStruct, ptr %165, i32 0, i32 3
  store i8 1, ptr %166, align 2, !tbaa !44
  %167 = load ptr, ptr %4, align 8, !tbaa !4
  %168 = getelementptr inbounds nuw %struct.OutStruct, ptr %167, i32 0, i32 4
  store i8 1, ptr %168, align 1, !tbaa !45
  %169 = load ptr, ptr %7, align 8, !tbaa !11
  %170 = load ptr, ptr %4, align 8, !tbaa !4
  %171 = getelementptr inbounds nuw %struct.OutStruct, ptr %170, i32 0, i32 5
  store ptr %169, ptr %171, align 8, !tbaa !46
  %172 = load ptr, ptr %4, align 8, !tbaa !4
  %173 = getelementptr inbounds nuw %struct.OutStruct, ptr %172, i32 0, i32 6
  store i64 0, ptr %173, align 8, !tbaa !47
  %174 = load ptr, ptr %4, align 8, !tbaa !4
  %175 = getelementptr inbounds nuw %struct.OutStruct, ptr %174, i32 0, i32 7
  store i64 0, ptr %175, align 8, !tbaa !48
  store i1 true, ptr %3, align 1
  store i32 1, ptr %14, align 4
  br label %176

176:                                              ; preds = %164, %158, %152
  call void @llvm.lifetime.end.p0(i64 8, ptr %8) #8
  call void @llvm.lifetime.end.p0(i64 8, ptr %7) #8
  call void @llvm.lifetime.end.p0(i64 8, ptr %6) #8
  %177 = load i1, ptr %3, align 1
  ret i1 %177
}